; ModuleID = '50/678.c'
source_filename = "50/678.c"
target datalayout = "e-m:e-p270:32:32-p271:32:32-p272:64:64-i64:64-f80:128-n8:16:32:64-S128"
target triple = "x86_64-pc-linux-gnu"

@.str = private unnamed_addr constant [3 x i8] c"%d\00", align 1
@.str.1 = private unnamed_addr constant [3 x i8] c"1\0A\00", align 1
@.str.2 = private unnamed_addr constant [4 x i8] c"%d\0A\00", align 1

; Function Attrs: noinline nounwind uwtable
define dso_local i32 @main() #0 {
  %1 = alloca i32, align 4
  %2 = alloca [12 x i32], align 16
  %3 = alloca i32, align 4
  %4 = alloca i32, align 4
  %5 = alloca i32, align 4
  %6 = alloca i32, align 4
  store i32 0, i32* %1, align 4
  %7 = getelementptr inbounds [12 x i32], [12 x i32]* %2, i64 0, i64 1
  store i32 31, i32* %7, align 4
  %8 = getelementptr inbounds [12 x i32], [12 x i32]* %2, i64 0, i64 2
  store i32 28, i32* %8, align 8
  %9 = getelementptr inbounds [12 x i32], [12 x i32]* %2, i64 0, i64 3
  store i32 31, i32* %9, align 4
  %10 = getelementptr inbounds [12 x i32], [12 x i32]* %2, i64 0, i64 4
  store i32 30, i32* %10, align 16
  %11 = getelementptr inbounds [12 x i32], [12 x i32]* %2, i64 0, i64 5
  store i32 31, i32* %11, align 4
  %12 = getelementptr inbounds [12 x i32], [12 x i32]* %2, i64 0, i64 6
  store i32 30, i32* %12, align 8
  %13 = getelementptr inbounds [12 x i32], [12 x i32]* %2, i64 0, i64 7
  store i32 31, i32* %13, align 4
  %14 = getelementptr inbounds [12 x i32], [12 x i32]* %2, i64 0, i64 8
  store i32 31, i32* %14, align 16
  %15 = getelementptr inbounds [12 x i32], [12 x i32]* %2, i64 0, i64 9
  store i32 30, i32* %15, align 4
  %16 = getelementptr inbounds [12 x i32], [12 x i32]* %2, i64 0, i64 10
  store i32 31, i32* %16, align 8
  %17 = getelementptr inbounds [12 x i32], [12 x i32]* %2, i64 0, i64 11
  store i32 30, i32* %17, align 4
  %18 = getelementptr inbounds [12 x i32], [12 x i32]* %2, i64 0, i64 12
  store i32 31, i32* %18, align 16
  store i32 12, i32* %5, align 4
  store i32 0, i32* %6, align 4
  %19 = call i32 (i8*, ...) @__isoc99_scanf(i8* getelementptr inbounds ([3 x i8], [3 x i8]* @.str, i64 0, i64 0), i32* %3)
  %20 = load i32, i32* %3, align 4
  %21 = add nsw i32 %20, 5
  %22 = icmp sgt i32 %21, 7
  br i1 %22, label %23, label %30

23:                                               ; preds = %0
  %24 = load i32, i32* %3, align 4
  %25 = add nsw i32 %24, 5
  %26 = sub nsw i32 %25, 7
  %27 = icmp eq i32 %26, 5
  br i1 %27, label %28, label %30

28:                                               ; preds = %23
  %29 = call i32 (i8*, ...) @printf(i8* getelementptr inbounds ([3 x i8], [3 x i8]* @.str.1, i64 0, i64 0))
  br label %30

30:                                               ; preds = %28, %23, %0
  store i32 2, i32* %4, align 4
  br label %31

31:                                               ; preds = %62, %30
  %32 = load i32, i32* %4, align 4
  %33 = icmp sle i32 %32, 12
  br i1 %33, label %34, label %65

34:                                               ; preds = %31
  %35 = load i32, i32* %4, align 4
  %36 = sub nsw i32 %35, 1
  %37 = sext i32 %36 to i64
  %38 = getelementptr inbounds [12 x i32], [12 x i32]* %2, i64 0, i64 %37
  %39 = load i32, i32* %38, align 4
  %40 = load i32, i32* %5, align 4
  %41 = add nsw i32 %40, %39
  store i32 %41, i32* %5, align 4
  %42 = load i32, i32* %3, align 4
  %43 = load i32, i32* %5, align 4
  %44 = srem i32 %43, 7
  %45 = add nsw i32 %42, %44
  store i32 %45, i32* %6, align 4
  %46 = load i32, i32* %6, align 4
  %47 = icmp sgt i32 %46, 7
  br i1 %47, label %48, label %55

48:                                               ; preds = %34
  %49 = load i32, i32* %6, align 4
  %50 = sub nsw i32 %49, 7
  %51 = icmp eq i32 %50, 5
  br i1 %51, label %52, label %55

52:                                               ; preds = %48
  %53 = load i32, i32* %4, align 4
  %54 = call i32 (i8*, ...) @printf(i8* getelementptr inbounds ([4 x i8], [4 x i8]* @.str.2, i64 0, i64 0), i32 %53)
  br label %55

55:                                               ; preds = %52, %48, %34
  %56 = load i32, i32* %6, align 4
  %57 = icmp eq i32 %56, 5
  br i1 %57, label %58, label %61

58:                                               ; preds = %55
  %59 = load i32, i32* %4, align 4
  %60 = call i32 (i8*, ...) @printf(i8* getelementptr inbounds ([4 x i8], [4 x i8]* @.str.2, i64 0, i64 0), i32 %59)
  br label %61

61:                                               ; preds = %58, %55
  br label %62

62:                                               ; preds = %61
  %63 = load i32, i32* %4, align 4
  %64 = add nsw i32 %63, 1
  store i32 %64, i32* %4, align 4
  br label %31

65:                                               ; preds = %31
  ret i32 0
}

declare dso_local i32 @__isoc99_scanf(i8*, ...) #1

declare dso_local i32 @printf(i8*, ...) #1


!llvm.module.flags = !{!0}
!llvm.ident = !{!1}

!0 = !{i32 1, !"wchar_size", i32 4}
!1 = !{!"clang version 10.0.0-4ubuntu1 "}
